; ModuleID = '21/285.c'
source_filename = "21/285.c"
target datalayout = "e-m:e-p270:32:32-p271:32:32-p272:64:64-i64:64-f80:128-n8:16:32:64-S128"
target triple = "x86_64-pc-linux-gnu"

@.str = private unnamed_addr constant [4 x i8] c"%lf\00", align 1
@.str.1 = private unnamed_addr constant [5 x i8] c"%.0f\00", align 1
@.str.2 = private unnamed_addr constant [6 x i8] c",%.0f\00", align 1

; Function Attrs: noinline nounwind uwtable
define dso_local void @main() #0 {
  %1 = alloca [300 x double], align 16
  %2 = alloca [300 x double], align 16
  %3 = alloca i32, align 4
  %4 = alloca i32, align 4
  %5 = alloca double, align 8
  %6 = alloca double, align 8
  %7 = alloca double, align 8
  %8 = bitcast [300 x double]* %1 to i8*
  call void @llvm.memset.p0i8.i64(i8* align 16 %8, i8 0, i64 2400, i1 false)
  %9 = bitcast [300 x double]* %2 to i8*
  call void @llvm.memset.p0i8.i64(i8* align 16 %9, i8 0, i64 2400, i1 false)
  store i32 0, i32* %4, align 4
  store double 0.000000e+00, double* %5, align 8
  store double 0.000000e+00, double* %7, align 8
  %10 = call i32 (i8*, ...) @__isoc99_scanf(i8* getelementptr inbounds ([4 x i8], [4 x i8]* @.str, i64 0, i64 0), double* %6)
  store i32 0, i32* %3, align 4
  br label %11

11:                                               ; preds = %21, %0
  %12 = load i32, i32* %3, align 4
  %13 = sitofp i32 %12 to double
  %14 = load double, double* %6, align 8
  %15 = fcmp olt double %13, %14
  br i1 %15, label %16, label %24

16:                                               ; preds = %11
  %17 = load i32, i32* %3, align 4
  %18 = sext i32 %17 to i64
  %19 = getelementptr inbounds [300 x double], [300 x double]* %1, i64 0, i64 %18
  %20 = call i32 (i8*, ...) @__isoc99_scanf(i8* getelementptr inbounds ([4 x i8], [4 x i8]* @.str, i64 0, i64 0), double* %19)
  br label %21

21:                                               ; preds = %16
  %22 = load i32, i32* %3, align 4
  %23 = add nsw i32 %22, 1
  store i32 %23, i32* %3, align 4
  br label %11

24:                                               ; preds = %11
  store i32 0, i32* %3, align 4
  br label %25

25:                                               ; preds = %37, %24
  %26 = load i32, i32* %3, align 4
  %27 = sitofp i32 %26 to double
  %28 = load double, double* %6, align 8
  %29 = fcmp olt double %27, %28
  br i1 %29, label %30, label %40

30:                                               ; preds = %25
  %31 = load double, double* %7, align 8
  %32 = load i32, i32* %3, align 4
  %33 = sext i32 %32 to i64
  %34 = getelementptr inbounds [300 x double], [300 x double]* %1, i64 0, i64 %33
  %35 = load double, double* %34, align 8
  %36 = fadd double %31, %35
  store double %36, double* %7, align 8
  br label %37

37:                                               ; preds = %30
  %38 = load i32, i32* %3, align 4
  %39 = add nsw i32 %38, 1
  store i32 %39, i32* %3, align 4
  br label %25

40:                                               ; preds = %25
  %41 = load double, double* %7, align 8
  %42 = load double, double* %6, align 8
  %43 = fdiv double %41, %42
  store double %43, double* %7, align 8
  store i32 0, i32* %3, align 4
  br label %44

44:                                               ; preds = %60, %40
  %45 = load i32, i32* %3, align 4
  %46 = sitofp i32 %45 to double
  %47 = load double, double* %6, align 8
  %48 = fcmp olt double %46, %47
  br i1 %48, label %49, label %63

49:                                               ; preds = %44
  %50 = load i32, i32* %3, align 4
  %51 = sext i32 %50 to i64
  %52 = getelementptr inbounds [300 x double], [300 x double]* %1, i64 0, i64 %51
  %53 = load double, double* %52, align 8
  %54 = load double, double* %7, align 8
  %55 = fsub double %53, %54
  %56 = call double @llvm.fabs.f64(double %55)
  %57 = load i32, i32* %3, align 4
  %58 = sext i32 %57 to i64
  %59 = getelementptr inbounds [300 x double], [300 x double]* %2, i64 0, i64 %58
  store double %56, double* %59, align 8
  br label %60

60:                                               ; preds = %49
  %61 = load i32, i32* %3, align 4
  %62 = add nsw i32 %61, 1
  store i32 %62, i32* %3, align 4
  br label %44

63:                                               ; preds = %44
  store i32 0, i32* %3, align 4
  br label %64

64:                                               ; preds = %82, %63
  %65 = load i32, i32* %3, align 4
  %66 = sitofp i32 %65 to double
  %67 = load double, double* %6, align 8
  %68 = fcmp olt double %66, %67
  br i1 %68, label %69, label %85

69:                                               ; preds = %64
  %70 = load double, double* %5, align 8
  %71 = load i32, i32* %3, align 4
  %72 = sext i32 %71 to i64
  %73 = getelementptr inbounds [300 x double], [300 x double]* %2, i64 0, i64 %72
  %74 = load double, double* %73, align 8
  %75 = fcmp olt double %70, %74
  br i1 %75, label %76, label %81

76:                                               ; preds = %69
  %77 = load i32, i32* %3, align 4
  %78 = sext i32 %77 to i64
  %79 = getelementptr inbounds [300 x double], [300 x double]* %2, i64 0, i64 %78
  %80 = load double, double* %79, align 8
  store double %80, double* %5, align 8
  br label %81

81:                                               ; preds = %76, %69
  br label %82

82:                                               ; preds = %81
  %83 = load i32, i32* %3, align 4
  %84 = add nsw i32 %83, 1
  store i32 %84, i32* %3, align 4
  br label %64

85:                                               ; preds = %64
  store i32 0, i32* %3, align 4
  br label %86

86:                                               ; preds = %117, %85
  %87 = load i32, i32* %3, align 4
  %88 = sitofp i32 %87 to double
  %89 = load double, double* %6, align 8
  %90 = fcmp olt double %88, %89
  br i1 %90, label %91, label %120

91:                                               ; preds = %86
  %92 = load i32, i32* %3, align 4
  %93 = sext i32 %92 to i64
  %94 = getelementptr inbounds [300 x double], [300 x double]* %2, i64 0, i64 %93
  %95 = load double, double* %94, align 8
  %96 = load double, double* %5, align 8
  %97 = fcmp oeq double %95, %96
  br i1 %97, label %98, label %116

98:                                               ; preds = %91
  %99 = load i32, i32* %4, align 4
  %100 = add nsw i32 %99, 1
  store i32 %100, i32* %4, align 4
  %101 = load i32, i32* %4, align 4
  %102 = icmp eq i32 %101, 1
  br i1 %102, label %103, label %109

103:                                              ; preds = %98
  %104 = load i32, i32* %3, align 4
  %105 = sext i32 %104 to i64
  %106 = getelementptr inbounds [300 x double], [300 x double]* %1, i64 0, i64 %105
  %107 = load double, double* %106, align 8
  %108 = call i32 (i8*, ...) @printf(i8* getelementptr inbounds ([5 x i8], [5 x i8]* @.str.1, i64 0, i64 0), double %107)
  br label %115

109:                                              ; preds = %98
  %110 = load i32, i32* %3, align 4
  %111 = sext i32 %110 to i64
  %112 = getelementptr inbounds [300 x double], [300 x double]* %1, i64 0, i64 %111
  %113 = load double, double* %112, align 8
  %114 = call i32 (i8*, ...) @printf(i8* getelementptr inbounds ([6 x i8], [6 x i8]* @.str.2, i64 0, i64 0), double %113)
  br label %115

115:                                              ; preds = %109, %103
  br label %116

116:                                              ; preds = %115, %91
  br label %117

117:                                              ; preds = %116
  %118 = load i32, i32* %3, align 4
  %119 = add nsw i32 %118, 1
  store i32 %119, i32* %3, align 4
  br label %86

120:                                              ; preds = %86
  ret void
}

; Function Attrs: argmemonly nounwind willreturn
declare void @llvm.memset.p0i8.i64(i8* nocapture writeonly, i8, i64, i1 immarg) #1

declare dso_local i32 @__isoc99_scanf(i8*, ...) #2

; Function Attrs: nounwind readnone speculatable willreturn
declare double @llvm.fabs.f64(double) #3

declare dso_local i32 @printf(i8*, ...) #2


!llvm.module.flags = !{!0}
!llvm.ident = !{!1}

!0 = !{i32 1, !"wchar_size", i32 4}
!1 = !{!"clang version 10.0.0-4ubuntu1 "}
